; Function Attrs: nounwind uwtable
define internal range(i32 0, 2) i32 @test_unsupported() #0 {
  %1 = alloca ptr, align 8
  %2 = alloca ptr, align 8
  %3 = alloca [6 x i8], align 1
  call void @llvm.lifetime.start.p0(i64 8, ptr nonnull %1) #5
  call void @llvm.lifetime.start.p0(i64 8, ptr nonnull %2) #5
  call void @llvm.lifetime.start.p0(i64 6, ptr nonnull %3) #5
  call void @llvm.memcpy.p0.p0.i64(ptr noundef nonnull align 1 dereferenceable(6) %3, ptr noundef nonnull align 1 dereferenceable(6) @__const.test_unsupported.bytes, i64 6, i1 false)
  %4 = load ptr, ptr @s, align 8, !tbaa !9
  %5 = call i32 @SSL_bytes_to_cipher_list(ptr noundef %4, ptr noundef nonnull %3, i64 noundef 6, i32 noundef 0, ptr noundef nonnull %1, ptr noundef nonnull %2) #5
  %6 = icmp ne i32 %5, 0
  %7 = zext i1 %6 to i32
  %8 = call i32 @test_true(ptr noundef nonnull @.str, i32 noundef 53, ptr noundef nonnull @.str.11, i32 noundef %7) #5
  %.not = icmp eq i32 %8, 0
  br i1 %.not, label %28, label %9

9:                                                ; preds = %0
  %10 = load ptr, ptr %1, align 8, !tbaa !11
  %11 = call i32 @test_ptr(ptr noundef nonnull @.str, i32 noundef 54, ptr noundef nonnull @.str.9, ptr noundef %10) #5
  %.not1 = icmp eq i32 %11, 0
  br i1 %.not1, label %28, label %12

12:                                               ; preds = %9
  %13 = load ptr, ptr %1, align 8, !tbaa !11
  %14 = call i32 @OPENSSL_sk_num(ptr noundef %13) #5
  %15 = call i32 @test_int_eq(ptr noundef nonnull @.str, i32 noundef 55, ptr noundef nonnull @.str.12, ptr noundef nonnull @.str.13, i32 noundef %14, i32 noundef 1) #5
  %.not2 = icmp eq i32 %15, 0
  br i1 %.not2, label %28, label %16

16:                                               ; preds = %12
  %17 = load ptr, ptr %2, align 8, !tbaa !11
  %18 = call i32 @test_ptr(ptr noundef nonnull @.str, i32 noundef 56, ptr noundef nonnull @.str.10, ptr noundef %17) #5
  %.not3 = icmp eq i32 %18, 0
  br i1 %.not3, label %28, label %19

19:                                               ; preds = %16
  %20 = load ptr, ptr %2, align 8, !tbaa !11
  %21 = call i32 @OPENSSL_sk_num(ptr noundef %20) #5
  %22 = call i32 @test_int_eq(ptr noundef nonnull @.str, i32 noundef 57, ptr noundef nonnull @.str.14, ptr noundef nonnull @.str.8, i32 noundef %21, i32 noundef 0) #5
  %.not4 = icmp eq i32 %22, 0
  br i1 %.not4, label %28, label %23

23:                                               ; preds = %19
  %24 = load ptr, ptr %1, align 8, !tbaa !11
  %25 = call ptr @OPENSSL_sk_value(ptr noundef %24, i32 noundef 0) #5
  %26 = call ptr @SSL_CIPHER_get_name(ptr noundef %25) #5
  %27 = call i32 @test_str_eq(ptr noundef nonnull @.str, i32 noundef 59, ptr noundef nonnull @.str.15, ptr noundef nonnull @.str.16, ptr noundef %26, ptr noundef nonnull @.str.17) #5
  %.not5 = icmp ne i32 %27, 0
  %spec.select = zext i1 %.not5 to i32
  br label %28

28:                                               ; preds = %23, %0, %9, %12, %16, %19
  %.0 = phi i32 [ 0, %19 ], [ 0, %16 ], [ 0, %12 ], [ 0, %9 ], [ 0, %0 ], [ %spec.select, %23 ]
  %29 = load ptr, ptr %1, align 8, !tbaa !11
  call void @OPENSSL_sk_free(ptr noundef %29) #5
  %30 = load ptr, ptr %2, align 8, !tbaa !11
  call void @OPENSSL_sk_free(ptr noundef %30) #5
  call void @llvm.lifetime.end.p0(i64 6, ptr nonnull %3) #5
  call void @llvm.lifetime.end.p0(i64 8, ptr nonnull %2) #5
  call void @llvm.lifetime.end.p0(i64 8, ptr nonnull %1) #5
  ret i32 %.0
}